target datalayout = "e-m:e-p270:32:32-p271:32:32-p272:64:64-i64:64-i128:128-f80:128-n8:16:32:64-S128"
target triple = "x86_64-pc-linux-gnu"

%"class.OpenSubdiv::v3_6_0::Bfr::PatchTreeBuilder" = type { ptr, ptr, i32, %"class.std::vector", %"class.std::vector.0", ptr }
%"class.std::vector" = type { %"struct.std::_Vector_base" }
%"struct.std::_Vector_base" = type { %"struct.std::_Vector_base<int, std::allocator<int>>::_Vector_impl" }
%"struct.std::_Vector_base<int, std::allocator<int>>::_Vector_impl" = type { %"struct.std::_Vector_base<int, std::allocator<int>>::_Vector_impl_data" }
%"struct.std::_Vector_base<int, std::allocator<int>>::_Vector_impl_data" = type { ptr, ptr, ptr }
%"class.std::vector.0" = type { %"struct.std::_Vector_base.1" }
%"struct.std::_Vector_base.1" = type { %"struct.std::_Vector_base<OpenSubdiv::v3_6_0::Bfr::PatchTreeBuilder::PatchFace, std::allocator<OpenSubdiv::v3_6_0::Bfr::PatchTreeBuilder::PatchFace>>::_Vector_impl" }
%"struct.std::_Vector_base<OpenSubdiv::v3_6_0::Bfr::PatchTreeBuilder::PatchFace, std::allocator<OpenSubdiv::v3_6_0::Bfr::PatchTreeBuilder::PatchFace>>::_Vector_impl" = type { %"struct.std::_Vector_base<OpenSubdiv::v3_6_0::Bfr::PatchTreeBuilder::PatchFace, std::allocator<OpenSubdiv::v3_6_0::Bfr::PatchTreeBuilder::PatchFace>>::_Vector_impl_data" }
%"struct.std::_Vector_base<OpenSubdiv::v3_6_0::Bfr::PatchTreeBuilder::PatchFace, std::allocator<OpenSubdiv::v3_6_0::Bfr::PatchTreeBuilder::PatchFace>>::_Vector_impl_data" = type { ptr, ptr, ptr }

; Function Attrs: mustprogress uwtable
define void @_ZN10OpenSubdiv6v3_6_03Bfr16PatchTreeBuilder18initializeQuadTreeEv(ptr noundef nonnull align 8 dereferenceable(80) %0) #0 align 2 {
  %2 = alloca ptr, align 8
  store ptr %0, ptr %2, align 8
  %3 = load ptr, ptr %2, align 8
  %4 = getelementptr inbounds nuw %"class.OpenSubdiv::v3_6_0::Bfr::PatchTreeBuilder", ptr %3, i32 0, i32 0
  %5 = load ptr, ptr %4, align 8
  call void @_ZN10OpenSubdiv6v3_6_03Bfr9PatchTree13buildQuadtreeEv(ptr noundef nonnull align 8 dereferenceable(176) %5)
  ret void
}

; Function Attrs: mustprogress uwtable
define noundef ptr @_ZN10OpenSubdiv6v3_6_03Bfr16PatchTreeBuilder5BuildEv(ptr noundef nonnull align 8 dereferenceable(80) %0) #0 align 2 {
  %2 = alloca ptr, align 8
  store ptr %0, ptr %2, align 8
  %3 = load ptr, ptr %2, align 8
  call void @_ZN10OpenSubdiv6v3_6_03Bfr16PatchTreeBuilder15identifyPatchesEv(ptr noundef nonnull align 8 dereferenceable(80) %3)
  call void @_ZN10OpenSubdiv6v3_6_03Bfr16PatchTreeBuilder17initializePatchesEv(ptr noundef nonnull align 8 dereferenceable(80) %3)
  %4 = getelementptr inbounds nuw %"class.OpenSubdiv::v3_6_0::Bfr::PatchTreeBuilder", ptr %3, i32 0, i32 0
  %5 = load ptr, ptr %4, align 8
  %6 = load i8, ptr %5, align 8
  %7 = and i8 %6, 1
  %8 = zext i8 %7 to i32
  %9 = icmp ne i32 %8, 0
  br i1 %9, label %10, label %11

10:                                               ; preds = %1
  call void @_ZN10OpenSubdiv6v3_6_03Bfr16PatchTreeBuilder23initializeStencilMatrixIdEEvv(ptr noundef nonnull align 8 dereferenceable(80) %3)
  br label %12

11:                                               ; preds = %1
  call void @_ZN10OpenSubdiv6v3_6_03Bfr16PatchTreeBuilder23initializeStencilMatrixIfEEvv(ptr noundef nonnull align 8 dereferenceable(80) %3)
  br label %12

12:                                               ; preds = %11, %10
  call void @_ZN10OpenSubdiv6v3_6_03Bfr16PatchTreeBuilder18initializeQuadTreeEv(ptr noundef nonnull align 8 dereferenceable(80) %3)
  %13 = getelementptr inbounds nuw %"class.OpenSubdiv::v3_6_0::Bfr::PatchTreeBuilder", ptr %3, i32 0, i32 0
  %14 = load ptr, ptr %13, align 8
  ret ptr %14
}