; Function Attrs: mustprogress uwtable
define noundef ptr @_ZN10OpenSubdiv6v3_6_03Bfr16PatchTreeBuilder5BuildEv(ptr noundef nonnull align 8 dereferenceable(80) %0) local_unnamed_addr #0 align 2 {
  tail call void @_ZN10OpenSubdiv6v3_6_03Bfr16PatchTreeBuilder15identifyPatchesEv(ptr noundef nonnull align 8 dereferenceable(80) %0)
  tail call void @_ZN10OpenSubdiv6v3_6_03Bfr16PatchTreeBuilder17initializePatchesEv(ptr noundef nonnull align 8 dereferenceable(80) %0)
  %2 = load ptr, ptr %0, align 8
  %3 = load i8, ptr %2, align 8
  %4 = and i8 %3, 1
  %.not = icmp eq i8 %4, 0
  br i1 %.not, label %6, label %5

5:                                                ; preds = %1
  tail call void @_ZN10OpenSubdiv6v3_6_03Bfr16PatchTreeBuilder23initializeStencilMatrixIdEEvv(ptr noundef nonnull align 8 dereferenceable(80) %0)
  br label %7

6:                                                ; preds = %1
  tail call void @_ZN10OpenSubdiv6v3_6_03Bfr16PatchTreeBuilder23initializeStencilMatrixIfEEvv(ptr noundef nonnull align 8 dereferenceable(80) %0)
  br label %7

7:                                                ; preds = %6, %5
  %8 = load ptr, ptr %0, align 8
  tail call void @_ZN10OpenSubdiv6v3_6_03Bfr9PatchTree13buildQuadtreeEv(ptr noundef nonnull align 8 dereferenceable(176) %8)
  %9 = load ptr, ptr %0, align 8
  ret ptr %9
}